target datalayout = "e-m:e-p270:32:32-p271:32:32-p272:64:64-i64:64-i128:128-f80:128-n8:16:32:64-S128"
target triple = "x86_64-pc-linux-gnu"

%"struct.std::__1::__value_init_tag" = type { i8 }
%"class.Imath_2_5::Box" = type { %"class.Imath_2_5::Vec2.168", %"class.Imath_2_5::Vec2.168" }
%"class.Imath_2_5::Vec2.168" = type { i32, i32 }
%"struct.std::__1::__atomic_base.180" = type { %"struct.std::__1::__cxx_atomic_impl.181" }
%"struct.std::__1::__cxx_atomic_impl.181" = type { %"struct.std::__1::__cxx_atomic_base_impl.182" }
%"struct.std::__1::__cxx_atomic_base_impl.182" = type { i8 }
%class.anon.183 = type { ptr, ptr, ptr }
%"class.std::__1::unique_ptr.352" = type { %"class.std::__1::__compressed_pair.353" }
%"class.std::__1::__compressed_pair.353" = type { %"struct.std::__1::__compressed_pair_elem.354" }
%"struct.std::__1::__compressed_pair_elem.354" = type { ptr }
%"class.std::__1::unique_ptr.358" = type { %"class.std::__1::__compressed_pair.359" }
%"class.std::__1::__compressed_pair.359" = type { %"struct.std::__1::__compressed_pair_elem.360" }
%"struct.std::__1::__compressed_pair_elem.360" = type { ptr }
%"class.std::__1::tuple" = type { %"struct.std::__1::__tuple_impl" }
%"struct.std::__1::__tuple_impl" = type { %"class.std::__1::__tuple_leaf", %"class.std::__1::__tuple_leaf.364" }
%"class.std::__1::__tuple_leaf" = type { %"class.std::__1::unique_ptr.352" }
%"class.std::__1::__tuple_leaf.364" = type { %class.anon.183 }
%"class.std::__1::__thread_specific_ptr" = type { i32 }

; Function Attrs: mustprogress nounwind uwtable
define linkonce_odr hidden void @_ZNSt3__118__cxx_atomic_storeB8ne190000IbEEvPNS_22__cxx_atomic_base_implIT_EES2_NS_12memory_orderE(ptr noundef %0, i1 noundef zeroext %1, i32 noundef %2) #1 comdat {
  %4 = alloca ptr, align 8
  %5 = alloca i8, align 1
  %6 = alloca i32, align 4
  %7 = alloca i8, align 1
  store ptr %0, ptr %4, align 8
  %8 = zext i1 %1 to i8
  store i8 %8, ptr %5, align 1
  store i32 %2, ptr %6, align 4
  %9 = load ptr, ptr %4, align 8
  %10 = getelementptr inbounds %"struct.std::__1::__cxx_atomic_base_impl.182", ptr %9, i32 0, i32 0
  %11 = load i32, ptr %6, align 4
  %12 = load i8, ptr %5, align 1
  %13 = trunc i8 %12 to i1
  %14 = zext i1 %13 to i8
  store i8 %14, ptr %7, align 1
  switch i32 %11, label %15 [
    i32 3, label %17
    i32 5, label %19
  ]

15:                                               ; preds = %3
  %16 = load i8, ptr %7, align 1
  store atomic i8 %16, ptr %10 monotonic, align 1
  br label %21

17:                                               ; preds = %3
  %18 = load i8, ptr %7, align 1
  store atomic i8 %18, ptr %10 release, align 1
  br label %21

19:                                               ; preds = %3
  %20 = load i8, ptr %7, align 1
  store atomic i8 %20, ptr %10 seq_cst, align 1
  br label %21

21:                                               ; preds = %19, %17, %15
  ret void
}

; Function Attrs: mustprogress nounwind uwtable
define linkonce_odr hidden void @_ZNSt3__113__atomic_baseIbLb0EE5storeB8ne190000EbNS_12memory_orderE(ptr noundef nonnull align 1 dereferenceable(1) %0, i1 noundef zeroext %1, i32 noundef %2) #1 comdat align 2 {
  %4 = alloca ptr, align 8
  %5 = alloca i8, align 1
  %6 = alloca i32, align 4
  store ptr %0, ptr %4, align 8
  %7 = zext i1 %1 to i8
  store i8 %7, ptr %5, align 1
  store i32 %2, ptr %6, align 4
  %8 = load ptr, ptr %4, align 8
  %9 = getelementptr inbounds %"struct.std::__1::__atomic_base.180", ptr %8, i32 0, i32 0
  %10 = load i8, ptr %5, align 1
  %11 = trunc i8 %10 to i1
  %12 = load i32, ptr %6, align 4
  call void @_ZNSt3__118__cxx_atomic_storeB8ne190000IbEEvPNS_22__cxx_atomic_base_implIT_EES2_NS_12memory_orderE(ptr noundef %9, i1 noundef zeroext %11, i32 noundef %12) #29
  ret void
}

; Function Attrs: mustprogress nounwind uwtable
define linkonce_odr hidden noundef zeroext i1 @_ZNSt3__16atomicIbEaSB8ne190000Eb(ptr noundef nonnull align 1 dereferenceable(1) %0, i1 noundef zeroext %1) #1 comdat align 2 {
  %3 = alloca ptr, align 8
  %4 = alloca i8, align 1
  store ptr %0, ptr %3, align 8
  %5 = zext i1 %1 to i8
  store i8 %5, ptr %4, align 1
  %6 = load ptr, ptr %3, align 8
  %7 = load i8, ptr %4, align 1
  %8 = trunc i8 %7 to i1
  call void @_ZNSt3__113__atomic_baseIbLb0EE5storeB8ne190000EbNS_12memory_orderE(ptr noundef nonnull align 1 dereferenceable(1) %6, i1 noundef zeroext %8, i32 noundef 5) #29
  %9 = load i8, ptr %4, align 1
  %10 = trunc i8 %9 to i1
  ret i1 %10
}

; Function Attrs: mustprogress uwtable
define internal void @"_ZZN7mitsuba6Bitmap8read_exrEPNS_6StreamEENK3$_4clEv"(ptr noundef nonnull align 8 dereferenceable(24) %0) #0 align 2 {
  %2 = alloca ptr, align 8
  store ptr %0, ptr %2, align 8
  %3 = load ptr, ptr %2, align 8
  %4 = getelementptr inbounds %class.anon.183, ptr %3, i32 0, i32 0
  %5 = load ptr, ptr %4, align 8
  %6 = getelementptr inbounds %class.anon.183, ptr %3, i32 0, i32 1
  %7 = load ptr, ptr %6, align 8
  %8 = getelementptr inbounds %"class.Imath_2_5::Box", ptr %7, i32 0, i32 0
  %9 = getelementptr inbounds %"class.Imath_2_5::Vec2.168", ptr %8, i32 0, i32 1
  %10 = load i32, ptr %9, align 4
  %11 = getelementptr inbounds %class.anon.183, ptr %3, i32 0, i32 1
  %12 = load ptr, ptr %11, align 8
  %13 = getelementptr inbounds %"class.Imath_2_5::Box", ptr %12, i32 0, i32 1
  %14 = getelementptr inbounds %"class.Imath_2_5::Vec2.168", ptr %13, i32 0, i32 1
  %15 = load i32, ptr %14, align 4
  call void @_ZN7Imf_2_59InputFile10readPixelsEii(ptr noundef nonnull align 8 dereferenceable(16) %5, i32 noundef %10, i32 noundef %15)
  %16 = getelementptr inbounds %class.anon.183, ptr %3, i32 0, i32 2
  %17 = load ptr, ptr %16, align 8
  %18 = call noundef zeroext i1 @_ZNSt3__16atomicIbEaSB8ne190000Eb(ptr noundef nonnull align 1 dereferenceable(1) %17, i1 noundef zeroext true) #29
  ret void
}

; Function Attrs: mustprogress nounwind uwtable
define internal noundef nonnull align 8 dereferenceable(24) ptr @"_ZNSt3__112__tuple_leafILm1EZN7mitsuba6Bitmap8read_exrEPNS1_6StreamEE3$_4Lb0EE3getB8ne190000Ev"(ptr noundef nonnull align 8 dereferenceable(24) %0) #1 align 2 {
  %2 = alloca ptr, align 8
  store ptr %0, ptr %2, align 8
  %3 = load ptr, ptr %2, align 8
  %4 = getelementptr inbounds %"class.std::__1::__tuple_leaf.364", ptr %3, i32 0, i32 0
  ret ptr %4
}

; Function Attrs: mustprogress nounwind uwtable
define linkonce_odr hidden noundef nonnull align 8 dereferenceable(8) ptr @_ZNSt3__122__compressed_pair_elemIPNS_15__thread_structELi0ELb0EE5__getB8ne190000Ev(ptr noundef nonnull align 8 dereferenceable(8) %0) #1 comdat align 2 {
  %2 = alloca ptr, align 8
  store ptr %0, ptr %2, align 8
  %3 = load ptr, ptr %2, align 8
  %4 = getelementptr inbounds %"struct.std::__1::__compressed_pair_elem.354", ptr %3, i32 0, i32 0
  ret ptr %4
}

; Function Attrs: mustprogress nounwind uwtable
define internal noundef nonnull align 8 dereferenceable(8) ptr @"_ZNKSt3__122__compressed_pair_elemIPNS_5tupleIJNS_10unique_ptrINS_15__thread_structENS_14default_deleteIS3_EEEEZN7mitsuba6Bitmap8read_exrEPNS7_6StreamEE3$_4EEELi0ELb0EE5__getB8ne190000Ev"(ptr noundef nonnull align 8 dereferenceable(8) %0) #1 align 2 {
  %2 = alloca ptr, align 8
  store ptr %0, ptr %2, align 8
  %3 = load ptr, ptr %2, align 8
  %4 = getelementptr inbounds %"struct.std::__1::__compressed_pair_elem.360", ptr %3, i32 0, i32 0
  ret ptr %4
}

; Function Attrs: mustprogress nounwind uwtable
define internal void @"_ZNSt3__122__compressed_pair_elemINS_14default_deleteINS_5tupleIJNS_10unique_ptrINS_15__thread_structENS1_IS4_EEEEZN7mitsuba6Bitmap8read_exrEPNS7_6StreamEE3$_4EEEEELi1ELb1EEC2B8ne190000ENS_16__value_init_tagE"(ptr noundef nonnull align 1 dereferenceable(1) %0) unnamed_addr #1 align 2 {
  %2 = alloca ptr, align 8
  store ptr %0, ptr %2, align 8
  ret void
}

; Function Attrs: mustprogress nounwind uwtable
define internal void @"_ZNSt3__122__compressed_pair_elemIPNS_5tupleIJNS_10unique_ptrINS_15__thread_structENS_14default_deleteIS3_EEEEZN7mitsuba6Bitmap8read_exrEPNS7_6StreamEE3$_4EEELi0ELb0EEC2B8ne190000IRSD_TnNS_9enable_ifIXntsr7is_sameISE_u7__decayIT_EEE5valueEiE4typeELi0EEEOSI_"(ptr noundef nonnull align 8 dereferenceable(8) %0, ptr noundef nonnull align 8 dereferenceable(8) %1) unnamed_addr #1 align 2 {
  %3 = alloca ptr, align 8
  %4 = alloca ptr, align 8
  store ptr %0, ptr %3, align 8
  store ptr %1, ptr %4, align 8
  %5 = load ptr, ptr %3, align 8
  %6 = getelementptr inbounds %"struct.std::__1::__compressed_pair_elem.360", ptr %5, i32 0, i32 0
  %7 = load ptr, ptr %4, align 8
  %8 = load ptr, ptr %7, align 8
  store ptr %8, ptr %6, align 8
  ret void
}

; Function Attrs: mustprogress uwtable
define internal void @"_ZNSt3__18__invokeB8ne190000IZN7mitsuba6Bitmap8read_exrEPNS1_6StreamEE3$_4JEEEDTclclsr3stdE7declvalIT_EEspclsr3stdE7declvalIT0_EEEEOS6_DpOS7_"(ptr noundef nonnull align 8 dereferenceable(24) %0) #0 {
  %2 = alloca ptr, align 8
  store ptr %0, ptr %2, align 8
  %3 = load ptr, ptr %2, align 8
  call void @"_ZZN7mitsuba6Bitmap8read_exrEPNS_6StreamEENK3$_4clEv"(ptr noundef nonnull align 8 dereferenceable(24) %3)
  ret void
}

; Function Attrs: mustprogress nounwind uwtable
define internal noundef nonnull align 8 dereferenceable(24) ptr @"_ZNSt3__13getB8ne190000ILm1EJNS_10unique_ptrINS_15__thread_structENS_14default_deleteIS2_EEEEZN7mitsuba6Bitmap8read_exrEPNS6_6StreamEE3$_4EEERNS_13tuple_elementIXT_ENS_5tupleIJDpT0_EEEE4typeERSF_"(ptr noundef nonnull align 8 dereferenceable(32) %0) #1 {
  %2 = alloca ptr, align 8
  store ptr %0, ptr %2, align 8
  %3 = load ptr, ptr %2, align 8
  %4 = getelementptr inbounds %"class.std::__1::tuple", ptr %3, i32 0, i32 0
  %5 = getelementptr inbounds i8, ptr %4, i64 8
  %6 = call noundef nonnull align 8 dereferenceable(24) ptr @"_ZNSt3__112__tuple_leafILm1EZN7mitsuba6Bitmap8read_exrEPNS1_6StreamEE3$_4Lb0EE3getB8ne190000Ev"(ptr noundef nonnull align 8 dereferenceable(24) %5) #29
  ret ptr %6
}

; Function Attrs: mustprogress nounwind uwtable
define linkonce_odr hidden noundef i32 @_ZNSt3__116__libcpp_tls_setB8ne190000EjPv(i32 noundef %0, ptr noundef %1) #1 comdat {
  %3 = alloca i32, align 4
  %4 = alloca ptr, align 8
  store i32 %0, ptr %3, align 4
  store ptr %1, ptr %4, align 8
  %5 = load i32, ptr %3, align 4
  %6 = load ptr, ptr %4, align 8
  %7 = call i32 @pthread_setspecific(i32 noundef %5, ptr noundef %6) #29
  ret i32 %7
}

; Function Attrs: mustprogress nounwind uwtable
define linkonce_odr hidden noundef nonnull align 8 dereferenceable(8) ptr @_ZNSt3__117__compressed_pairIPNS_15__thread_structENS_14default_deleteIS1_EEE5firstB8ne190000Ev(ptr noundef nonnull align 8 dereferenceable(8) %0) #1 comdat align 2 {
  %2 = alloca ptr, align 8
  store ptr %0, ptr %2, align 8
  %3 = load ptr, ptr %2, align 8
  %4 = call noundef nonnull align 8 dereferenceable(8) ptr @_ZNSt3__122__compressed_pair_elemIPNS_15__thread_structELi0ELb0EE5__getB8ne190000Ev(ptr noundef nonnull align 8 dereferenceable(8) %3) #29
  ret ptr %4
}

; Function Attrs: mustprogress nounwind uwtable
define linkonce_odr hidden noundef nonnull align 8 dereferenceable(8) ptr @_ZNSt3__112__tuple_leafILm0ENS_10unique_ptrINS_15__thread_structENS_14default_deleteIS2_EEEELb0EE3getB8ne190000Ev(ptr noundef nonnull align 8 dereferenceable(8) %0) #1 comdat align 2 {
  %2 = alloca ptr, align 8
  store ptr %0, ptr %2, align 8
  %3 = load ptr, ptr %2, align 8
  %4 = getelementptr inbounds %"class.std::__1::__tuple_leaf", ptr %3, i32 0, i32 0
  ret ptr %4
}

; Function Attrs: mustprogress nounwind uwtable
define internal noundef nonnull align 8 dereferenceable(8) ptr @"_ZNKSt3__117__compressed_pairIPNS_5tupleIJNS_10unique_ptrINS_15__thread_structENS_14default_deleteIS3_EEEEZN7mitsuba6Bitmap8read_exrEPNS7_6StreamEE3$_4EEENS4_ISC_EEE5firstB8ne190000Ev"(ptr noundef nonnull align 8 dereferenceable(8) %0) #1 align 2 {
  %2 = alloca ptr, align 8
  store ptr %0, ptr %2, align 8
  %3 = load ptr, ptr %2, align 8
  %4 = call noundef nonnull align 8 dereferenceable(8) ptr @"_ZNKSt3__122__compressed_pair_elemIPNS_5tupleIJNS_10unique_ptrINS_15__thread_structENS_14default_deleteIS3_EEEEZN7mitsuba6Bitmap8read_exrEPNS7_6StreamEE3$_4EEELi0ELb0EE5__getB8ne190000Ev"(ptr noundef nonnull align 8 dereferenceable(8) %3) #29
  ret ptr %4
}

; Function Attrs: noreturn nounwind uwtable
define linkonce_odr hidden void @__clang_call_terminate(ptr noundef %0) #16 comdat {
  %2 = call ptr @__cxa_begin_catch(ptr %0) #29
  call void @_ZSt9terminatev() #31
  unreachable
}

; Function Attrs: mustprogress uwtable
define internal void @"_ZNSt3__117__compressed_pairIPNS_5tupleIJNS_10unique_ptrINS_15__thread_structENS_14default_deleteIS3_EEEEZN7mitsuba6Bitmap8read_exrEPNS7_6StreamEE3$_4EEENS4_ISC_EEEC2B8ne190000IRSD_NS_16__value_init_tagEEEOT_OT0_"(ptr noundef nonnull align 8 dereferenceable(8) %0, ptr noundef nonnull align 8 dereferenceable(8) %1, ptr noundef nonnull align 1 dereferenceable(1) %2) unnamed_addr #0 align 2 {
  %4 = alloca ptr, align 8
  %5 = alloca ptr, align 8
  %6 = alloca ptr, align 8
  store ptr %0, ptr %4, align 8
  store ptr %1, ptr %5, align 8
  store ptr %2, ptr %6, align 8
  %7 = load ptr, ptr %4, align 8
  %8 = load ptr, ptr %5, align 8
  call void @"_ZNSt3__122__compressed_pair_elemIPNS_5tupleIJNS_10unique_ptrINS_15__thread_structENS_14default_deleteIS3_EEEEZN7mitsuba6Bitmap8read_exrEPNS7_6StreamEE3$_4EEELi0ELb0EEC2B8ne190000IRSD_TnNS_9enable_ifIXntsr7is_sameISE_u7__decayIT_EEE5valueEiE4typeELi0EEEOSI_"(ptr noundef nonnull align 8 dereferenceable(8) %7, ptr noundef nonnull align 8 dereferenceable(8) %8)
  call void @"_ZNSt3__122__compressed_pair_elemINS_14default_deleteINS_5tupleIJNS_10unique_ptrINS_15__thread_structENS1_IS4_EEEEZN7mitsuba6Bitmap8read_exrEPNS7_6StreamEE3$_4EEEEELi1ELb1EEC2B8ne190000ENS_16__value_init_tagE"(ptr noundef nonnull align 1 dereferenceable(1) %7)
  ret void
}

; Function Attrs: mustprogress uwtable
define internal void @"_ZNSt3__116__thread_executeB8ne190000INS_10unique_ptrINS_15__thread_structENS_14default_deleteIS2_EEEEZN7mitsuba6Bitmap8read_exrEPNS6_6StreamEE3$_4JETpTnmJEEEvRNS_5tupleIJT_T0_DpT1_EEENS_15__tuple_indicesIJXspT2_EEEE"(ptr noundef nonnull align 8 dereferenceable(32) %0) #0 {
  %2 = alloca ptr, align 8
  store ptr %0, ptr %2, align 8
  %3 = load ptr, ptr %2, align 8
  %4 = call noundef nonnull align 8 dereferenceable(24) ptr @"_ZNSt3__13getB8ne190000ILm1EJNS_10unique_ptrINS_15__thread_structENS_14default_deleteIS2_EEEEZN7mitsuba6Bitmap8read_exrEPNS6_6StreamEE3$_4EEERNS_13tuple_elementIXT_ENS_5tupleIJDpT0_EEEE4typeERSF_"(ptr noundef nonnull align 8 dereferenceable(32) %3) #29
  call void @"_ZNSt3__18__invokeB8ne190000IZN7mitsuba6Bitmap8read_exrEPNS1_6StreamEE3$_4JEEEDTclclsr3stdE7declvalIT_EEspclsr3stdE7declvalIT0_EEEEOS6_DpOS7_"(ptr noundef nonnull align 8 dereferenceable(24) %4)
  ret void
}

; Function Attrs: mustprogress uwtable
define linkonce_odr hidden void @_ZNSt3__121__thread_specific_ptrINS_15__thread_structEE11set_pointerEPS1_(ptr noundef nonnull align 4 dereferenceable(4) %0, ptr noundef %1) #0 comdat align 2 {
  %3 = alloca ptr, align 8
  %4 = alloca ptr, align 8
  store ptr %0, ptr %3, align 8
  store ptr %1, ptr %4, align 8
  %5 = load ptr, ptr %3, align 8
  %6 = getelementptr inbounds %"class.std::__1::__thread_specific_ptr", ptr %5, i32 0, i32 0
  %7 = load i32, ptr %6, align 4
  %8 = load ptr, ptr %4, align 8
  %9 = call noundef i32 @_ZNSt3__116__libcpp_tls_setB8ne190000EjPv(i32 noundef %7, ptr noundef %8)
  ret void
}

; Function Attrs: mustprogress nounwind uwtable
define linkonce_odr hidden noundef ptr @_ZNSt3__110unique_ptrINS_15__thread_structENS_14default_deleteIS1_EEE7releaseB8ne190000Ev(ptr noundef nonnull align 8 dereferenceable(8) %0) #1 comdat align 2 {
  %2 = alloca ptr, align 8
  %3 = alloca ptr, align 8
  store ptr %0, ptr %2, align 8
  %4 = load ptr, ptr %2, align 8
  %5 = getelementptr inbounds %"class.std::__1::unique_ptr.352", ptr %4, i32 0, i32 0
  %6 = call noundef nonnull align 8 dereferenceable(8) ptr @_ZNSt3__117__compressed_pairIPNS_15__thread_structENS_14default_deleteIS1_EEE5firstB8ne190000Ev(ptr noundef nonnull align 8 dereferenceable(8) %5) #29
  %7 = load ptr, ptr %6, align 8
  store ptr %7, ptr %3, align 8
  %8 = getelementptr inbounds %"class.std::__1::unique_ptr.352", ptr %4, i32 0, i32 0
  %9 = call noundef nonnull align 8 dereferenceable(8) ptr @_ZNSt3__117__compressed_pairIPNS_15__thread_structENS_14default_deleteIS1_EEE5firstB8ne190000Ev(ptr noundef nonnull align 8 dereferenceable(8) %8) #29
  store ptr null, ptr %9, align 8
  %10 = load ptr, ptr %3, align 8
  ret ptr %10
}

; Function Attrs: mustprogress nounwind uwtable
define internal noundef nonnull align 8 dereferenceable(8) ptr @"_ZNSt3__13getB8ne190000ILm0EJNS_10unique_ptrINS_15__thread_structENS_14default_deleteIS2_EEEEZN7mitsuba6Bitmap8read_exrEPNS6_6StreamEE3$_4EEERNS_13tuple_elementIXT_ENS_5tupleIJDpT0_EEEE4typeERSF_"(ptr noundef nonnull align 8 dereferenceable(32) %0) #1 {
  %2 = alloca ptr, align 8
  store ptr %0, ptr %2, align 8
  %3 = load ptr, ptr %2, align 8
  %4 = getelementptr inbounds %"class.std::__1::tuple", ptr %3, i32 0, i32 0
  %5 = call noundef nonnull align 8 dereferenceable(8) ptr @_ZNSt3__112__tuple_leafILm0ENS_10unique_ptrINS_15__thread_structENS_14default_deleteIS2_EEEELb0EE3getB8ne190000Ev(ptr noundef nonnull align 8 dereferenceable(8) %4) #29
  ret ptr %5
}

; Function Attrs: mustprogress nounwind uwtable
define internal noundef ptr @"_ZNKSt3__110unique_ptrINS_5tupleIJNS0_INS_15__thread_structENS_14default_deleteIS2_EEEEZN7mitsuba6Bitmap8read_exrEPNS6_6StreamEE3$_4EEENS3_ISB_EEE3getB8ne190000Ev"(ptr noundef nonnull align 8 dereferenceable(8) %0) #1 align 2 {
  %2 = alloca ptr, align 8
  store ptr %0, ptr %2, align 8
  %3 = load ptr, ptr %2, align 8
  %4 = getelementptr inbounds %"class.std::__1::unique_ptr.358", ptr %3, i32 0, i32 0
  %5 = call noundef nonnull align 8 dereferenceable(8) ptr @"_ZNKSt3__117__compressed_pairIPNS_5tupleIJNS_10unique_ptrINS_15__thread_structENS_14default_deleteIS3_EEEEZN7mitsuba6Bitmap8read_exrEPNS7_6StreamEE3$_4EEENS4_ISC_EEE5firstB8ne190000Ev"(ptr noundef nonnull align 8 dereferenceable(8) %4) #29
  %6 = load ptr, ptr %5, align 8
  ret ptr %6
}

; Function Attrs: mustprogress nounwind uwtable
define internal void @"_ZNSt3__110unique_ptrINS_5tupleIJNS0_INS_15__thread_structENS_14default_deleteIS2_EEEEZN7mitsuba6Bitmap8read_exrEPNS6_6StreamEE3$_4EEENS3_ISB_EEEC2B8ne190000ILb1EvEEPSB_"(ptr noundef nonnull align 8 dereferenceable(8) %0, ptr noundef %1) unnamed_addr #1 align 2 personality ptr @__gxx_personality_v0 {
  %3 = alloca ptr, align 8
  %4 = alloca ptr, align 8
  %5 = alloca %"struct.std::__1::__value_init_tag", align 1
  store ptr %0, ptr %3, align 8
  store ptr %1, ptr %4, align 8
  %6 = load ptr, ptr %3, align 8
  %7 = getelementptr inbounds %"class.std::__1::unique_ptr.358", ptr %6, i32 0, i32 0
  invoke void @"_ZNSt3__117__compressed_pairIPNS_5tupleIJNS_10unique_ptrINS_15__thread_structENS_14default_deleteIS3_EEEEZN7mitsuba6Bitmap8read_exrEPNS7_6StreamEE3$_4EEENS4_ISC_EEEC2B8ne190000IRSD_NS_16__value_init_tagEEEOT_OT0_"(ptr noundef nonnull align 8 dereferenceable(8) %7, ptr noundef nonnull align 8 dereferenceable(8) %4, ptr noundef nonnull align 1 dereferenceable(1) %5)
          to label %8 unwind label %9

8:                                                ; preds = %2
  ret void

9:                                                ; preds = %2
  %10 = landingpad { ptr, i32 }
          catch ptr null
  %11 = extractvalue { ptr, i32 } %10, 0
  call void @__clang_call_terminate(ptr %11) #31
  unreachable
}

; Function Attrs: mustprogress uwtable
define internal noundef ptr @"_ZNSt3__114__thread_proxyB8ne190000INS_5tupleIJNS_10unique_ptrINS_15__thread_structENS_14default_deleteIS3_EEEEZN7mitsuba6Bitmap8read_exrEPNS7_6StreamEE3$_4EEEEEPvSD_"(ptr noundef %0) #0 personality ptr @__gxx_personality_v0 {
  %2 = alloca ptr, align 8
  %3 = alloca %"class.std::__1::unique_ptr.358", align 8
  %4 = alloca ptr, align 8
  %5 = alloca i32, align 4
  store ptr %0, ptr %2, align 8
  %6 = load ptr, ptr %2, align 8
  call void @"_ZNSt3__110unique_ptrINS_5tupleIJNS0_INS_15__thread_structENS_14default_deleteIS2_EEEEZN7mitsuba6Bitmap8read_exrEPNS6_6StreamEE3$_4EEENS3_ISB_EEEC2B8ne190000ILb1EvEEPSB_"(ptr noundef nonnull align 8 dereferenceable(8) %3, ptr noundef %6) #29
  %7 = invoke noundef nonnull align 4 dereferenceable(4) ptr @_ZNSt3__119__thread_local_dataEv()
          to label %8 unwind label %15

8:                                                ; preds = %1
  %9 = call noundef ptr @"_ZNKSt3__110unique_ptrINS_5tupleIJNS0_INS_15__thread_structENS_14default_deleteIS2_EEEEZN7mitsuba6Bitmap8read_exrEPNS6_6StreamEE3$_4EEENS3_ISB_EEE3getB8ne190000Ev"(ptr noundef nonnull align 8 dereferenceable(8) %3) #29
  %10 = call noundef nonnull align 8 dereferenceable(8) ptr @"_ZNSt3__13getB8ne190000ILm0EJNS_10unique_ptrINS_15__thread_structENS_14default_deleteIS2_EEEEZN7mitsuba6Bitmap8read_exrEPNS6_6StreamEE3$_4EEERNS_13tuple_elementIXT_ENS_5tupleIJDpT0_EEEE4typeERSF_"(ptr noundef nonnull align 8 dereferenceable(32) %9) #29
  %11 = call noundef ptr @_ZNSt3__110unique_ptrINS_15__thread_structENS_14default_deleteIS1_EEE7releaseB8ne190000Ev(ptr noundef nonnull align 8 dereferenceable(8) %10) #29
  invoke void @_ZNSt3__121__thread_specific_ptrINS_15__thread_structEE11set_pointerEPS1_(ptr noundef nonnull align 4 dereferenceable(4) %7, ptr noundef %11)
          to label %12 unwind label %15

12:                                               ; preds = %8
  %13 = call noundef ptr @"_ZNKSt3__110unique_ptrINS_5tupleIJNS0_INS_15__thread_structENS_14default_deleteIS2_EEEEZN7mitsuba6Bitmap8read_exrEPNS6_6StreamEE3$_4EEENS3_ISB_EEE3getB8ne190000Ev"(ptr noundef nonnull align 8 dereferenceable(8) %3) #29
  invoke void @"_ZNSt3__116__thread_executeB8ne190000INS_10unique_ptrINS_15__thread_structENS_14default_deleteIS2_EEEEZN7mitsuba6Bitmap8read_exrEPNS6_6StreamEE3$_4JETpTnmJEEEvRNS_5tupleIJT_T0_DpT1_EEENS_15__tuple_indicesIJXspT2_EEEE"(ptr noundef nonnull align 8 dereferenceable(32) %13)
          to label %14 unwind label %15

14:                                               ; preds = %12
  call void @"_ZNSt3__110unique_ptrINS_5tupleIJNS0_INS_15__thread_structENS_14default_deleteIS2_EEEEZN7mitsuba6Bitmap8read_exrEPNS6_6StreamEE3$_4EEENS3_ISB_EEED2B8ne190000Ev"(ptr noundef nonnull align 8 dereferenceable(8) %3) #29
  ret ptr null

15:                                               ; preds = %12, %8, %1
  %16 = landingpad { ptr, i32 }
          cleanup
  %17 = extractvalue { ptr, i32 } %16, 0
  store ptr %17, ptr %4, align 8
  %18 = extractvalue { ptr, i32 } %16, 1
  store i32 %18, ptr %5, align 4
  call void @"_ZNSt3__110unique_ptrINS_5tupleIJNS0_INS_15__thread_structENS_14default_deleteIS2_EEEEZN7mitsuba6Bitmap8read_exrEPNS6_6StreamEE3$_4EEENS3_ISB_EEED2B8ne190000Ev"(ptr noundef nonnull align 8 dereferenceable(8) %3) #29
  br label %19

19:                                               ; preds = %15
  %20 = load ptr, ptr %4, align 8
  %21 = load i32, ptr %5, align 4
  %22 = insertvalue { ptr, i32 } poison, ptr %20, 0
  %23 = insertvalue { ptr, i32 } %22, i32 %21, 1
  resume { ptr, i32 } %23
}