; Function Attrs: mustprogress uwtable
define internal noalias noundef ptr @"_ZNSt3__114__thread_proxyB8ne190000INS_5tupleIJNS_10unique_ptrINS_15__thread_structENS_14default_deleteIS3_EEEEZN7mitsuba6Bitmap8read_exrEPNS7_6StreamEE3$_4EEEEEPvSD_"(ptr noundef %0) #0 personality ptr @__gxx_personality_v0 {
  %2 = alloca %"class.std::__1::unique_ptr.358", align 8
  store ptr %0, ptr %2, align 8
  %3 = invoke noundef nonnull align 4 dereferenceable(4) ptr @_ZNSt3__119__thread_local_dataEv()
          to label %4 unwind label %20

4:                                                ; preds = %1
  %5 = load ptr, ptr %0, align 8
  store ptr null, ptr %0, align 8
  %6 = load i32, ptr %3, align 4
  %7 = tail call noundef i32 @pthread_setspecific(i32 noundef %6, ptr noundef %5) #36
  %8 = getelementptr inbounds i8, ptr %0, i64 8
  %9 = load ptr, ptr %8, align 8
  %10 = getelementptr inbounds i8, ptr %0, i64 16
  %11 = load ptr, ptr %10, align 8
  %12 = getelementptr inbounds i8, ptr %11, i64 4
  %13 = load i32, ptr %12, align 4
  %14 = getelementptr inbounds i8, ptr %11, i64 12
  %15 = load i32, ptr %14, align 4
  invoke void @_ZN7Imf_2_59InputFile10readPixelsEii(ptr noundef nonnull align 8 dereferenceable(16) %9, i32 noundef %13, i32 noundef %15)
          to label %16 unwind label %20

16:                                               ; preds = %4
  %17 = getelementptr inbounds i8, ptr %0, i64 24
  %18 = load ptr, ptr %17, align 8
  store atomic i8 1, ptr %18 seq_cst, align 1
  %19 = load ptr, ptr %0, align 8
  store ptr null, ptr %0, align 8
  %.not.i.i.i.i.i.i.i.i = icmp eq ptr %19, null
  br i1 %.not.i.i.i.i.i.i.i.i, label %"_ZNSt3__110unique_ptrINS_5tupleIJNS0_INS_15__thread_structENS_14default_deleteIS2_EEEEZN7mitsuba6Bitmap8read_exrEPNS6_6StreamEE3$_4EEENS3_ISB_EEED2B8ne190000Ev.exit", label %_ZNKSt3__114default_deleteINS_15__thread_structEEclB8ne190000EPS1_.exit.i.i.i.i.i.i.i.i

_ZNKSt3__114default_deleteINS_15__thread_structEEclB8ne190000EPS1_.exit.i.i.i.i.i.i.i.i: ; preds = %16
  tail call void @_ZNSt3__115__thread_structD1Ev(ptr noundef nonnull align 8 dereferenceable(8) %19) #36
  tail call void @_ZdlPv(ptr noundef nonnull %19) #35
  br label %"_ZNSt3__110unique_ptrINS_5tupleIJNS0_INS_15__thread_structENS_14default_deleteIS2_EEEEZN7mitsuba6Bitmap8read_exrEPNS6_6StreamEE3$_4EEENS3_ISB_EEED2B8ne190000Ev.exit"

"_ZNSt3__110unique_ptrINS_5tupleIJNS0_INS_15__thread_structENS_14default_deleteIS2_EEEEZN7mitsuba6Bitmap8read_exrEPNS6_6StreamEE3$_4EEENS3_ISB_EEED2B8ne190000Ev.exit": ; preds = %16, %_ZNKSt3__114default_deleteINS_15__thread_structEEclB8ne190000EPS1_.exit.i.i.i.i.i.i.i.i
  tail call void @_ZdlPv(ptr noundef nonnull %0) #35
  ret ptr null

20:                                               ; preds = %4, %1
  %21 = landingpad { ptr, i32 }
          cleanup
  call fastcc void @"_ZNSt3__110unique_ptrINS_5tupleIJNS0_INS_15__thread_structENS_14default_deleteIS2_EEEEZN7mitsuba6Bitmap8read_exrEPNS6_6StreamEE3$_4EEENS3_ISB_EEED2B8ne190000Ev"(ptr noundef nonnull align 8 dereferenceable(8) %2) #36
  resume { ptr, i32 } %21
}